; Function Attrs: nounwind sspstrong uwtable
define internal i64 @ossl_bn_uminus(i64 noundef %0) #0 {
  %2 = tail call ptr @rb_check_typeddata(i64 noundef %0, ptr noundef nonnull @ossl_bn_type) #11
  %.not = icmp eq ptr %2, null
  br i1 %.not, label %3, label %5

3:                                                ; preds = %1
  %4 = load i64, ptr @rb_eRuntimeError, align 8, !tbaa !6
  tail call void (i64, ptr, ...) @ossl_raise(i64 noundef %4, ptr noundef nonnull @.str) #12
  unreachable

5:                                                ; preds = %1
  %6 = load i64, ptr @cBN, align 8, !tbaa !6
  %7 = tail call i64 @rb_data_typed_object_wrap(i64 noundef %6, ptr noundef null, ptr noundef nonnull @ossl_bn_type) #11
  %8 = tail call ptr @BN_dup(ptr noundef nonnull %2) #11
  %.not10 = icmp eq ptr %8, null
  br i1 %.not10, label %9, label %11

9:                                                ; preds = %5
  %10 = load i64, ptr @eBNError, align 8, !tbaa !6
  tail call void (i64, ptr, ...) @ossl_raise(i64 noundef %10, ptr noundef nonnull @.str.68) #12
  unreachable

11:                                               ; preds = %5
  %12 = inttoptr i64 %7 to ptr
  %13 = getelementptr inbounds nuw i8, ptr %12, i64 32
  store ptr %8, ptr %13, align 8, !tbaa !10
  %14 = tail call i32 @BN_is_negative(ptr noundef nonnull %8) #11
  %.not11 = icmp eq i32 %14, 0
  %15 = zext i1 %.not11 to i32
  tail call void @BN_set_negative(ptr noundef nonnull %8, i32 noundef %15) #11
  ret i64 %7
}